; Function Attrs: mustprogress nofree norecurse nosync nounwind willreturn memory(write, argmem: readwrite, inaccessiblemem: none) uwtable
define dso_local void @_ZN4Luau7CodeGen3X6418AssemblyBuilderX6411placeRexNoWENS1_10OperandX64E(ptr noundef nonnull align 8 captures(none) dereferenceable(252) %0, i64 %1) local_unnamed_addr #5 align 2 {
  %.sroa.0.0.extract.trunc = trunc i64 %1 to i8
  %.sroa.4.0.extract.shift = lshr i64 %1, 16
  %.sroa.4.0.extract.trunc = trunc i64 %.sroa.4.0.extract.shift to i8
  switch i8 %.sroa.0.0.extract.trunc, label %.thread [
    i8 0, label %3
    i8 1, label %6
  ]

3:                                                ; preds = %2
  %4 = lshr i8 %.sroa.4.0.extract.trunc, 6
  %5 = and i8 %4, 1
  br label %13

6:                                                ; preds = %2
  %7 = lshr i8 %.sroa.4.0.extract.trunc, 6
  %8 = and i8 %7, 1
  %9 = lshr i64 %1, 13
  %10 = trunc i64 %9 to i8
  %11 = and i8 %10, 2
  %12 = or disjoint i8 %8, %11
  br label %13

13:                                               ; preds = %6, %3
  %.0 = phi i8 [ %5, %3 ], [ %12, %6 ]
  %.not = icmp eq i8 %.0, 0
  br i1 %.not, label %.thread, label %14

14:                                               ; preds = %13
  %15 = or i8 %.0, 64
  %16 = getelementptr inbounds nuw i8, ptr %0, i64 232
  %17 = load ptr, ptr %16, align 8, !tbaa !51
  %18 = getelementptr inbounds nuw i8, ptr %17, i64 1
  store ptr %18, ptr %16, align 8, !tbaa !51
  store i8 %15, ptr %17, align 1, !tbaa !13
  br label %.thread

.thread:                                          ; preds = %2, %14, %13
  ret void
}